target datalayout = "e-m:e-p270:32:32-p271:32:32-p272:64:64-i64:64-i128:128-f80:128-n8:16:32:64-S128"
target triple = "x86_64-pc-linux-gnu"

%struct.hwloc_distances_container_s = type { i32, %struct.hwloc_distances_s }
%struct.hwloc_distances_s = type { i32, ptr, i64, ptr }

; Function Attrs: nounwind uwtable
define void @hwloc_distances_release(ptr noundef %0, ptr noundef %1) #0 {
  %3 = alloca ptr, align 8
  %4 = alloca ptr, align 8
  %5 = alloca ptr, align 8
  store ptr %0, ptr %3, align 8, !tbaa !3
  store ptr %1, ptr %4, align 8, !tbaa !70
  call void @llvm.lifetime.start.p0(i64 8, ptr %5) #15
  %6 = load ptr, ptr %4, align 8, !tbaa !70
  %7 = getelementptr inbounds i8, ptr %6, i64 sub (i64 0, i64 ptrtoint (ptr getelementptr inbounds nuw (%struct.hwloc_distances_container_s, ptr null, i32 0, i32 1) to i64))
  store ptr %7, ptr %5, align 8, !tbaa !72
  %8 = load ptr, ptr %4, align 8, !tbaa !70
  %9 = getelementptr inbounds nuw %struct.hwloc_distances_s, ptr %8, i32 0, i32 3
  %10 = load ptr, ptr %9, align 8, !tbaa !78
  call void @free(ptr noundef %10) #15
  %11 = load ptr, ptr %4, align 8, !tbaa !70
  %12 = getelementptr inbounds nuw %struct.hwloc_distances_s, ptr %11, i32 0, i32 1
  %13 = load ptr, ptr %12, align 8, !tbaa !79
  call void @free(ptr noundef %13) #15
  %14 = load ptr, ptr %5, align 8, !tbaa !72
  call void @free(ptr noundef %14) #15
  call void @llvm.lifetime.end.p0(i64 8, ptr %5) #15
  ret void
}