; Function Attrs: mustprogress nounwind willreturn uwtable
define void @hwloc_distances_release(ptr noundef readnone captures(none) %0, ptr noundef captures(none) %1) local_unnamed_addr #8 {
  %3 = getelementptr inbounds i8, ptr %1, i64 -8
  %4 = getelementptr inbounds nuw i8, ptr %1, i64 24
  %5 = load ptr, ptr %4, align 8, !tbaa !70
  tail call void @free(ptr noundef %5) #27
  %6 = getelementptr inbounds nuw i8, ptr %1, i64 8
  %7 = load ptr, ptr %6, align 8, !tbaa !71
  tail call void @free(ptr noundef %7) #27
  tail call void @free(ptr noundef nonnull %3) #27
  ret void
}